
remote.elf:     file format elf32-avr

Sections:
Idx Name          Size      VMA       LMA       File off  Algn
  0 .data         0000000a  00800100  00000e90  00000f24  2**0
                  CONTENTS, ALLOC, LOAD, DATA
  1 .text         00000e90  00000000  00000000  00000094  2**1
                  CONTENTS, ALLOC, LOAD, READONLY, CODE
  2 .bss          00000005  0080010a  0080010a  00000f2e  2**0
                  ALLOC
  3 .stab         000006cc  00000000  00000000  00000f30  2**2
                  CONTENTS, READONLY, DEBUGGING
  4 .stabstr      00000085  00000000  00000000  000015fc  2**0
                  CONTENTS, READONLY, DEBUGGING
  5 .debug_aranges 00000060  00000000  00000000  00001688  2**3
                  CONTENTS, READONLY, DEBUGGING
  6 .debug_info   00000297  00000000  00000000  000016e8  2**0
                  CONTENTS, READONLY, DEBUGGING
  7 .debug_abbrev 0000003c  00000000  00000000  0000197f  2**0
                  CONTENTS, READONLY, DEBUGGING
  8 .debug_line   000001a7  00000000  00000000  000019bb  2**0
                  CONTENTS, READONLY, DEBUGGING

Disassembly of section .text:

00000000 <__vectors>:
   0:	0c 94 10 01 	jmp	0x220	; 0x220 <__ctors_end>
   4:	0c 94 2d 01 	jmp	0x25a	; 0x25a <__bad_interrupt>
   8:	0c 94 2d 01 	jmp	0x25a	; 0x25a <__bad_interrupt>
   c:	0c 94 2d 01 	jmp	0x25a	; 0x25a <__bad_interrupt>
  10:	0c 94 2d 01 	jmp	0x25a	; 0x25a <__bad_interrupt>
  14:	0c 94 2d 01 	jmp	0x25a	; 0x25a <__bad_interrupt>
  18:	0c 94 2d 01 	jmp	0x25a	; 0x25a <__bad_interrupt>
  1c:	0c 94 2d 01 	jmp	0x25a	; 0x25a <__bad_interrupt>
  20:	0c 94 2d 01 	jmp	0x25a	; 0x25a <__bad_interrupt>
  24:	0c 94 2d 01 	jmp	0x25a	; 0x25a <__bad_interrupt>
  28:	0c 94 2f 03 	jmp	0x65e	; 0x65e <__vector_10>
  2c:	0c 94 c2 03 	jmp	0x784	; 0x784 <__vector_11>
  30:	0c 94 2d 01 	jmp	0x25a	; 0x25a <__bad_interrupt>
  34:	0c 94 2d 01 	jmp	0x25a	; 0x25a <__bad_interrupt>
  38:	0c 94 2d 01 	jmp	0x25a	; 0x25a <__bad_interrupt>
  3c:	0c 94 2d 01 	jmp	0x25a	; 0x25a <__bad_interrupt>
  40:	0c 94 2d 01 	jmp	0x25a	; 0x25a <__bad_interrupt>
  44:	0c 94 2d 01 	jmp	0x25a	; 0x25a <__bad_interrupt>
  48:	0c 94 2d 01 	jmp	0x25a	; 0x25a <__bad_interrupt>
  4c:	0c 94 2d 01 	jmp	0x25a	; 0x25a <__bad_interrupt>
  50:	0c 94 2d 01 	jmp	0x25a	; 0x25a <__bad_interrupt>
  54:	0c 94 2d 01 	jmp	0x25a	; 0x25a <__bad_interrupt>
  58:	0c 94 2d 01 	jmp	0x25a	; 0x25a <__bad_interrupt>
  5c:	0c 94 2d 01 	jmp	0x25a	; 0x25a <__bad_interrupt>
  60:	0c 94 2d 01 	jmp	0x25a	; 0x25a <__bad_interrupt>
  64:	0c 94 2d 01 	jmp	0x25a	; 0x25a <__bad_interrupt>
  68:	0c 94 2d 01 	jmp	0x25a	; 0x25a <__bad_interrupt>
  6c:	0c 94 2d 01 	jmp	0x25a	; 0x25a <__bad_interrupt>
  70:	0c 94 2d 01 	jmp	0x25a	; 0x25a <__bad_interrupt>
  74:	0c 94 59 01 	jmp	0x2b2	; 0x2b2 <__vector_29>
  78:	0c 94 2d 01 	jmp	0x25a	; 0x25a <__bad_interrupt>
  7c:	0c 94 2d 01 	jmp	0x25a	; 0x25a <__bad_interrupt>
  80:	0c 94 2d 01 	jmp	0x25a	; 0x25a <__bad_interrupt>
  84:	0c 94 2d 01 	jmp	0x25a	; 0x25a <__bad_interrupt>
  88:	0c 94 2d 01 	jmp	0x25a	; 0x25a <__bad_interrupt>
  8c:	0c 94 2d 01 	jmp	0x25a	; 0x25a <__bad_interrupt>
  90:	0c 94 2d 01 	jmp	0x25a	; 0x25a <__bad_interrupt>
  94:	0c 94 2d 01 	jmp	0x25a	; 0x25a <__bad_interrupt>
  98:	0c 94 2d 01 	jmp	0x25a	; 0x25a <__bad_interrupt>
  9c:	0c 94 2d 01 	jmp	0x25a	; 0x25a <__bad_interrupt>
  a0:	0c 94 2d 01 	jmp	0x25a	; 0x25a <__bad_interrupt>
  a4:	0c 94 2d 01 	jmp	0x25a	; 0x25a <__bad_interrupt>
  a8:	0c 94 2d 01 	jmp	0x25a	; 0x25a <__bad_interrupt>

000000ac <_ZL15descriptor_list>:
  ac:	00 01 00 00 f3 00 12 00 02 00 00 05 01 3b 00 22     .............;."
  bc:	00 00 40 01 4c 00 21 00 00 17 01 09 00 22 01 00     ..@.L.!......"..
  cc:	8c 01 15 00 21 01 00 30 01 09 00 03 00 00 a1 01     ....!..0........
  dc:	04 01 03 09 04 cb 01 0a 02 03 09 04 f5 01 18        ...............

000000eb <_ZL21endpoint_config_table>:
  eb:	00 00 01 c1 06 01 c1 26                             .......&

000000f3 <_ZL17device_descriptor>:
  f3:	12 01 00 02 00 00 00 20 c0 16 04 04 00 01 01 02     ....... ........
 103:	00 01                                               ..

00000105 <_ZL18config1_descriptor>:
 105:	09 02 3b 00 02 01 00 c0 32 09 04 00 00 01 03 01     ..;.....2.......
 115:	01 00 09 21 11 01 00 01 22 4c 00 07 05 83 03 08     ...!...."L......
 125:	00 01 09 04 01 00 01 03 00 00 00 09 21 11 01 00     ............!...
 135:	01 22 15 00 07 05 84 03 20 00 01                    ."...... ..

00000140 <_ZL23gamepad_hid_report_desc>:
 140:	05 01 09 04 a1 01 15 00 25 01 75 01 95 0c 05 09     ........%.u.....
 150:	19 01 29 0c 81 02 95 01 75 08 81 03 15 00 25 07     ..).....u.....%.
 160:	35 00 46 3b 01 75 04 95 01 65 14 05 01 09 39 81     5.F;.u...e....9.
 170:	42 05 01 09 01 a1 00 15 00 26 ff 00 75 08 95 04     B........&..u...
 180:	09 30 09 31 09 32 09 35 81 02 c0 c0                 .0.1.2.5....

0000018c <_ZL21debug_hid_report_desc>:
 18c:	06 31 ff 09 74 a1 53 75 08 15 00 26 ff 00 95 20     .1..t.Su...&... 
 19c:	09 75 81 02 c0                                      .u...

000001a1 <_ZL7string0>:
 1a1:	04 03 09 04 00 00 00 00 00 00 00 00 00 00 00 00     ................
	...

000001cb <_ZL7string1>:
 1cb:	0a 03 6e 00 75 00 6c 00 6c 00 00 00 00 00 00 00     ..n.u.l.l.......
	...

000001f5 <_ZL7string2>:
 1f5:	18 03 55 00 53 00 42 00 20 00 47 00 61 00 6d 00     ..U.S.B. .G.a.m.
 205:	65 00 70 00 61 00 64 00 00 00 00 00 00 00 00 00     e.p.a.d.........
	...

00000220 <__ctors_end>:
 220:	11 24       	eor	r1, r1
 222:	1f be       	out	0x3f, r1	; 63
 224:	cf ef       	ldi	r28, 0xFF	; 255
 226:	da e0       	ldi	r29, 0x0A	; 10
 228:	de bf       	out	0x3e, r29	; 62
 22a:	cd bf       	out	0x3d, r28	; 61

0000022c <__do_copy_data>:
 22c:	11 e0       	ldi	r17, 0x01	; 1
 22e:	a0 e0       	ldi	r26, 0x00	; 0
 230:	b1 e0       	ldi	r27, 0x01	; 1
 232:	e0 e9       	ldi	r30, 0x90	; 144
 234:	fe e0       	ldi	r31, 0x0E	; 14
 236:	02 c0       	rjmp	.+4      	; 0x23c <__do_copy_data+0x10>
 238:	05 90       	lpm	r0, Z+
 23a:	0d 92       	st	X+, r0
 23c:	aa 30       	cpi	r26, 0x0A	; 10
 23e:	b1 07       	cpc	r27, r17
 240:	d9 f7       	brne	.-10     	; 0x238 <__do_copy_data+0xc>

00000242 <__do_clear_bss>:
 242:	11 e0       	ldi	r17, 0x01	; 1
 244:	aa e0       	ldi	r26, 0x0A	; 10
 246:	b1 e0       	ldi	r27, 0x01	; 1
 248:	01 c0       	rjmp	.+2      	; 0x24c <.do_clear_bss_start>

0000024a <.do_clear_bss_loop>:
 24a:	1d 92       	st	X+, r1

0000024c <.do_clear_bss_start>:
 24c:	af 30       	cpi	r26, 0x0F	; 15
 24e:	b1 07       	cpc	r27, r17
 250:	e1 f7       	brne	.-8      	; 0x24a <.do_clear_bss_loop>
 252:	0e 94 f9 06 	call	0xdf2	; 0xdf2 <main>
 256:	0c 94 46 07 	jmp	0xe8c	; 0xe8c <_exit>

0000025a <__bad_interrupt>:
 25a:	0c 94 00 00 	jmp	0	; 0x0 <__vectors>

0000025e <_Z5ADConv>:
 25e:	80 e8       	ldi	r24, 0x80	; 128
 260:	80 93 7a 00 	sts	0x007A, r24
 264:	08 95       	ret

00000266 <_Z6ADCoffv>:
 266:	ea e7       	ldi	r30, 0x7A	; 122
 268:	f0 e0       	ldi	r31, 0x00	; 0
 26a:	80 81       	ld	r24, Z
 26c:	8f 77       	andi	r24, 0x7F	; 127
 26e:	80 83       	st	Z, r24
 270:	08 95       	ret

00000272 <_Z7readvalc>:
 272:	80 66       	ori	r24, 0x60	; 96
 274:	80 93 7c 00 	sts	0x007C, r24
 278:	10 92 7b 00 	sts	0x007B, r1
 27c:	83 e0       	ldi	r24, 0x03	; 3
 27e:	83 bf       	out	0x33, r24	; 51
 280:	ea e7       	ldi	r30, 0x7A	; 122
 282:	f0 e0       	ldi	r31, 0x00	; 0
 284:	80 81       	ld	r24, Z
 286:	88 64       	ori	r24, 0x48	; 72
 288:	80 83       	st	Z, r24
 28a:	88 95       	sleep
 28c:	80 91 79 00 	lds	r24, 0x0079
 290:	08 95       	ret

00000292 <_Z12readleftvertv>:
 292:	80 e0       	ldi	r24, 0x00	; 0
 294:	0e 94 39 01 	call	0x272	; 0x272 <_Z7readvalc>
 298:	08 95       	ret

0000029a <_Z13readlefthorizv>:
 29a:	81 e0       	ldi	r24, 0x01	; 1
 29c:	0e 94 39 01 	call	0x272	; 0x272 <_Z7readvalc>
 2a0:	08 95       	ret

000002a2 <_Z13readrightvertv>:
 2a2:	84 e0       	ldi	r24, 0x04	; 4
 2a4:	0e 94 39 01 	call	0x272	; 0x272 <_Z7readvalc>
 2a8:	08 95       	ret

000002aa <_Z14readrighthorizv>:
 2aa:	85 e0       	ldi	r24, 0x05	; 5
 2ac:	0e 94 39 01 	call	0x272	; 0x272 <_Z7readvalc>
 2b0:	08 95       	ret

000002b2 <__vector_29>:
 2b2:	1f 92       	push	r1
 2b4:	0f 92       	push	r0
 2b6:	0f b6       	in	r0, 0x3f	; 63
 2b8:	0f 92       	push	r0
 2ba:	11 24       	eor	r1, r1
 2bc:	13 be       	out	0x33, r1	; 51
 2be:	0f 90       	pop	r0
 2c0:	0f be       	out	0x3f, r0	; 63
 2c2:	0f 90       	pop	r0
 2c4:	1f 90       	pop	r1
 2c6:	18 95       	reti

000002c8 <_Z7print_PPKc>:
 2c8:	1f 93       	push	r17
 2ca:	cf 93       	push	r28
 2cc:	df 93       	push	r29
 2ce:	ec 01       	movw	r28, r24
 2d0:	fe 01       	movw	r30, r28
 2d2:	21 96       	adiw	r28, 0x01	; 1
 2d4:	14 91       	lpm	r17, Z
 2d6:	11 23       	and	r17, r17
 2d8:	49 f0       	breq	.+18     	; 0x2ec <_Z7print_PPKc+0x24>
 2da:	1a 30       	cpi	r17, 0x0A	; 10
 2dc:	19 f4       	brne	.+6      	; 0x2e4 <_Z7print_PPKc+0x1c>
 2de:	8d e0       	ldi	r24, 0x0D	; 13
 2e0:	0e 94 d2 02 	call	0x5a4	; 0x5a4 <_Z17usb_debug_putcharh>
 2e4:	81 2f       	mov	r24, r17
 2e6:	0e 94 d2 02 	call	0x5a4	; 0x5a4 <_Z17usb_debug_putcharh>
 2ea:	f2 cf       	rjmp	.-28     	; 0x2d0 <_Z7print_PPKc+0x8>
 2ec:	df 91       	pop	r29
 2ee:	cf 91       	pop	r28
 2f0:	1f 91       	pop	r17
 2f2:	08 95       	ret

000002f4 <_Z5phex1h>:
 2f4:	8a 30       	cpi	r24, 0x0A	; 10
 2f6:	10 f4       	brcc	.+4      	; 0x2fc <_Z5phex1h+0x8>
 2f8:	90 e3       	ldi	r25, 0x30	; 48
 2fa:	01 c0       	rjmp	.+2      	; 0x2fe <_Z5phex1h+0xa>
 2fc:	97 e3       	ldi	r25, 0x37	; 55
 2fe:	89 0f       	add	r24, r25
 300:	0e 94 d2 02 	call	0x5a4	; 0x5a4 <_Z17usb_debug_putcharh>
 304:	08 95       	ret

00000306 <_Z4phexh>:
 306:	cf 93       	push	r28
 308:	c8 2f       	mov	r28, r24
 30a:	82 95       	swap	r24
 30c:	8f 70       	andi	r24, 0x0F	; 15
 30e:	0e 94 7a 01 	call	0x2f4	; 0x2f4 <_Z5phex1h>
 312:	8c 2f       	mov	r24, r28
 314:	8f 70       	andi	r24, 0x0F	; 15
 316:	0e 94 7a 01 	call	0x2f4	; 0x2f4 <_Z5phex1h>
 31a:	cf 91       	pop	r28
 31c:	08 95       	ret

0000031e <_Z6phex16j>:
 31e:	cf 93       	push	r28
 320:	c8 2f       	mov	r28, r24
 322:	89 2f       	mov	r24, r25
 324:	0e 94 83 01 	call	0x306	; 0x306 <_Z4phexh>
 328:	8c 2f       	mov	r24, r28
 32a:	0e 94 83 01 	call	0x306	; 0x306 <_Z4phexh>
 32e:	cf 91       	pop	r28
 330:	08 95       	ret

00000332 <_Z8pinsetupv>:
 332:	83 e3       	ldi	r24, 0x33	; 51
 334:	80 93 7e 00 	sts	0x007E, r24
 338:	85 b1       	in	r24, 0x05	; 5
 33a:	80 6f       	ori	r24, 0xF0	; 240
 33c:	85 b9       	out	0x05, r24	; 5
 33e:	88 b1       	in	r24, 0x08	; 8
 340:	80 6c       	ori	r24, 0xC0	; 192
 342:	88 b9       	out	0x08, r24	; 8
 344:	8f e7       	ldi	r24, 0x7F	; 127
 346:	8b b9       	out	0x0b, r24	; 11
 348:	72 9a       	sbi	0x0e, 2	; 14
 34a:	81 b3       	in	r24, 0x11	; 17
 34c:	80 6c       	ori	r24, 0xC0	; 192
 34e:	81 bb       	out	0x11, r24	; 17
 350:	6e 9a       	sbi	0x0d, 6	; 13
 352:	08 95       	ret

00000354 <_Z13update_inputsPc>:
 354:	cf 93       	push	r28
 356:	df 93       	push	r29
 358:	ec 01       	movw	r28, r24
 35a:	86 e0       	ldi	r24, 0x06	; 6
 35c:	88 83       	st	Y, r24
 35e:	19 82       	std	Y+1, r1	; 0x01
 360:	1a 82       	std	Y+2, r1	; 0x02
 362:	37 99       	sbic	0x06, 7	; 6
 364:	02 c0       	rjmp	.+4      	; 0x36a <_Z13update_inputsPc+0x16>
 366:	81 e0       	ldi	r24, 0x01	; 1
 368:	89 83       	std	Y+1, r24	; 0x01
 36a:	62 99       	sbic	0x0c, 2	; 12
 36c:	03 c0       	rjmp	.+6      	; 0x374 <_Z13update_inputsPc+0x20>
 36e:	89 81       	ldd	r24, Y+1	; 0x01
 370:	82 60       	ori	r24, 0x02	; 2
 372:	89 83       	std	Y+1, r24	; 0x01
 374:	7f 99       	sbic	0x0f, 7	; 15
 376:	03 c0       	rjmp	.+6      	; 0x37e <_Z13update_inputsPc+0x2a>
 378:	89 81       	ldd	r24, Y+1	; 0x01
 37a:	84 60       	ori	r24, 0x04	; 4
 37c:	89 83       	std	Y+1, r24	; 0x01
 37e:	7e 99       	sbic	0x0f, 6	; 15
 380:	03 c0       	rjmp	.+6      	; 0x388 <_Z13update_inputsPc+0x34>
 382:	89 81       	ldd	r24, Y+1	; 0x01
 384:	88 60       	ori	r24, 0x08	; 8
 386:	89 83       	std	Y+1, r24	; 0x01
 388:	49 99       	sbic	0x09, 1	; 9
 38a:	03 c0       	rjmp	.+6      	; 0x392 <_Z13update_inputsPc+0x3e>
 38c:	89 81       	ldd	r24, Y+1	; 0x01
 38e:	80 61       	ori	r24, 0x10	; 16
 390:	89 83       	std	Y+1, r24	; 0x01
 392:	1e 99       	sbic	0x03, 6	; 3
 394:	03 c0       	rjmp	.+6      	; 0x39c <_Z13update_inputsPc+0x48>
 396:	89 81       	ldd	r24, Y+1	; 0x01
 398:	80 62       	ori	r24, 0x20	; 32
 39a:	89 83       	std	Y+1, r24	; 0x01
 39c:	4a 99       	sbic	0x09, 2	; 9
 39e:	03 c0       	rjmp	.+6      	; 0x3a6 <_Z13update_inputsPc+0x52>
 3a0:	89 81       	ldd	r24, Y+1	; 0x01
 3a2:	80 64       	ori	r24, 0x40	; 64
 3a4:	89 83       	std	Y+1, r24	; 0x01
 3a6:	36 99       	sbic	0x06, 6	; 6
 3a8:	03 c0       	rjmp	.+6      	; 0x3b0 <_Z13update_inputsPc+0x5c>
 3aa:	89 81       	ldd	r24, Y+1	; 0x01
 3ac:	80 68       	ori	r24, 0x80	; 128
 3ae:	89 83       	std	Y+1, r24	; 0x01
 3b0:	1c 99       	sbic	0x03, 4	; 3
 3b2:	02 c0       	rjmp	.+4      	; 0x3b8 <_Z13update_inputsPc+0x64>
 3b4:	80 e1       	ldi	r24, 0x10	; 16
 3b6:	8a 83       	std	Y+2, r24	; 0x02
 3b8:	1d 99       	sbic	0x03, 5	; 3
 3ba:	03 c0       	rjmp	.+6      	; 0x3c2 <_Z13update_inputsPc+0x6e>
 3bc:	8a 81       	ldd	r24, Y+2	; 0x02
 3be:	80 62       	ori	r24, 0x20	; 32
 3c0:	8a 83       	std	Y+2, r24	; 0x02
 3c2:	1f 99       	sbic	0x03, 7	; 3
 3c4:	03 c0       	rjmp	.+6      	; 0x3cc <_Z13update_inputsPc+0x78>
 3c6:	8a 81       	ldd	r24, Y+2	; 0x02
 3c8:	80 64       	ori	r24, 0x40	; 64
 3ca:	8a 83       	std	Y+2, r24	; 0x02
 3cc:	89 b1       	in	r24, 0x09	; 9
 3ce:	80 fd       	sbrc	r24, 0
 3d0:	03 c0       	rjmp	.+6      	; 0x3d8 <_Z13update_inputsPc+0x84>
 3d2:	8a 81       	ldd	r24, Y+2	; 0x02
 3d4:	80 68       	ori	r24, 0x80	; 128
 3d6:	8a 83       	std	Y+2, r24	; 0x02
 3d8:	4b 99       	sbic	0x09, 3	; 9
 3da:	03 c0       	rjmp	.+6      	; 0x3e2 <_Z13update_inputsPc+0x8e>
 3dc:	8a 81       	ldd	r24, Y+2	; 0x02
 3de:	81 60       	ori	r24, 0x01	; 1
 3e0:	8a 83       	std	Y+2, r24	; 0x02
 3e2:	4d 99       	sbic	0x09, 5	; 9
 3e4:	03 c0       	rjmp	.+6      	; 0x3ec <_Z13update_inputsPc+0x98>
 3e6:	8a 81       	ldd	r24, Y+2	; 0x02
 3e8:	82 60       	ori	r24, 0x02	; 2
 3ea:	8a 83       	std	Y+2, r24	; 0x02
 3ec:	4c 99       	sbic	0x09, 4	; 9
 3ee:	03 c0       	rjmp	.+6      	; 0x3f6 <_Z13update_inputsPc+0xa2>
 3f0:	8a 81       	ldd	r24, Y+2	; 0x02
 3f2:	84 60       	ori	r24, 0x04	; 4
 3f4:	8a 83       	std	Y+2, r24	; 0x02
 3f6:	4e 99       	sbic	0x09, 6	; 9
 3f8:	03 c0       	rjmp	.+6      	; 0x400 <_Z13update_inputsPc+0xac>
 3fa:	8a 81       	ldd	r24, Y+2	; 0x02
 3fc:	88 60       	ori	r24, 0x08	; 8
 3fe:	8a 83       	std	Y+2, r24	; 0x02
 400:	2a 81       	ldd	r18, Y+2	; 0x02
 402:	82 2f       	mov	r24, r18
 404:	90 e0       	ldi	r25, 0x00	; 0
 406:	8f 70       	andi	r24, 0x0F	; 15
 408:	90 70       	andi	r25, 0x00	; 0
 40a:	84 30       	cpi	r24, 0x04	; 4
 40c:	91 05       	cpc	r25, r1
 40e:	31 f1       	breq	.+76     	; 0x45c <_Z13update_inputsPc+0x108>
 410:	85 30       	cpi	r24, 0x05	; 5
 412:	91 05       	cpc	r25, r1
 414:	54 f4       	brge	.+20     	; 0x42a <_Z13update_inputsPc+0xd6>
 416:	82 30       	cpi	r24, 0x02	; 2
 418:	91 05       	cpc	r25, r1
 41a:	d1 f0       	breq	.+52     	; 0x450 <_Z13update_inputsPc+0xfc>
 41c:	83 30       	cpi	r24, 0x03	; 3
 41e:	91 05       	cpc	r25, r1
 420:	d4 f4       	brge	.+52     	; 0x456 <_Z13update_inputsPc+0x102>
 422:	81 30       	cpi	r24, 0x01	; 1
 424:	91 05       	cpc	r25, r1
 426:	49 f5       	brne	.+82     	; 0x47a <_Z13update_inputsPc+0x126>
 428:	11 c0       	rjmp	.+34     	; 0x44c <_Z13update_inputsPc+0xf8>
 42a:	88 30       	cpi	r24, 0x08	; 8
 42c:	91 05       	cpc	r25, r1
 42e:	e1 f0       	breq	.+56     	; 0x468 <_Z13update_inputsPc+0x114>
 430:	89 30       	cpi	r24, 0x09	; 9
 432:	91 05       	cpc	r25, r1
 434:	24 f4       	brge	.+8      	; 0x43e <_Z13update_inputsPc+0xea>
 436:	86 30       	cpi	r24, 0x06	; 6
 438:	91 05       	cpc	r25, r1
 43a:	f9 f4       	brne	.+62     	; 0x47a <_Z13update_inputsPc+0x126>
 43c:	12 c0       	rjmp	.+36     	; 0x462 <_Z13update_inputsPc+0x10e>
 43e:	89 30       	cpi	r24, 0x09	; 9
 440:	91 05       	cpc	r25, r1
 442:	a9 f0       	breq	.+42     	; 0x46e <_Z13update_inputsPc+0x11a>
 444:	8c 30       	cpi	r24, 0x0C	; 12
 446:	91 05       	cpc	r25, r1
 448:	c1 f4       	brne	.+48     	; 0x47a <_Z13update_inputsPc+0x126>
 44a:	14 c0       	rjmp	.+40     	; 0x474 <_Z13update_inputsPc+0x120>
 44c:	20 7f       	andi	r18, 0xF0	; 240
 44e:	16 c0       	rjmp	.+44     	; 0x47c <_Z13update_inputsPc+0x128>
 450:	20 7f       	andi	r18, 0xF0	; 240
 452:	22 60       	ori	r18, 0x02	; 2
 454:	13 c0       	rjmp	.+38     	; 0x47c <_Z13update_inputsPc+0x128>
 456:	20 7f       	andi	r18, 0xF0	; 240
 458:	21 60       	ori	r18, 0x01	; 1
 45a:	10 c0       	rjmp	.+32     	; 0x47c <_Z13update_inputsPc+0x128>
 45c:	20 7f       	andi	r18, 0xF0	; 240
 45e:	24 60       	ori	r18, 0x04	; 4
 460:	0d c0       	rjmp	.+26     	; 0x47c <_Z13update_inputsPc+0x128>
 462:	20 7f       	andi	r18, 0xF0	; 240
 464:	23 60       	ori	r18, 0x03	; 3
 466:	0a c0       	rjmp	.+20     	; 0x47c <_Z13update_inputsPc+0x128>
 468:	20 7f       	andi	r18, 0xF0	; 240
 46a:	26 60       	ori	r18, 0x06	; 6
 46c:	07 c0       	rjmp	.+14     	; 0x47c <_Z13update_inputsPc+0x128>
 46e:	20 7f       	andi	r18, 0xF0	; 240
 470:	27 60       	ori	r18, 0x07	; 7
 472:	04 c0       	rjmp	.+8      	; 0x47c <_Z13update_inputsPc+0x128>
 474:	20 7f       	andi	r18, 0xF0	; 240
 476:	25 60       	ori	r18, 0x05	; 5
 478:	01 c0       	rjmp	.+2      	; 0x47c <_Z13update_inputsPc+0x128>
 47a:	2f 60       	ori	r18, 0x0F	; 15
 47c:	2a 83       	std	Y+2, r18	; 0x02
 47e:	0e 94 51 01 	call	0x2a2	; 0x2a2 <_Z13readrightvertv>
 482:	8b 83       	std	Y+3, r24	; 0x03
 484:	0e 94 55 01 	call	0x2aa	; 0x2aa <_Z14readrighthorizv>
 488:	80 95       	com	r24
 48a:	8c 83       	std	Y+4, r24	; 0x04
 48c:	0e 94 49 01 	call	0x292	; 0x292 <_Z12readleftvertv>
 490:	8d 83       	std	Y+5, r24	; 0x05
 492:	0e 94 4d 01 	call	0x29a	; 0x29a <_Z13readlefthorizv>
 496:	80 95       	com	r24
 498:	8e 83       	std	Y+6, r24	; 0x06
 49a:	df 91       	pop	r29
 49c:	cf 91       	pop	r28
 49e:	08 95       	ret

000004a0 <_Z14unused_modulesv>:
 4a0:	88 ea       	ldi	r24, 0xA8	; 168
 4a2:	80 93 64 00 	sts	0x0064, r24
 4a6:	89 e1       	ldi	r24, 0x19	; 25
 4a8:	80 93 65 00 	sts	0x0065, r24
 4ac:	85 b7       	in	r24, 0x35	; 53
 4ae:	80 68       	ori	r24, 0x80	; 128
 4b0:	85 bf       	out	0x35, r24	; 53
 4b2:	85 b7       	in	r24, 0x35	; 53
 4b4:	80 68       	ori	r24, 0x80	; 128
 4b6:	85 bf       	out	0x35, r24	; 53
 4b8:	08 95       	ret

000004ba <_Z9start_usbv>:
 4ba:	81 e1       	ldi	r24, 0x11	; 17
 4bc:	80 93 d8 00 	sts	0x00D8, r24
 4c0:	8f e7       	ldi	r24, 0x7F	; 127
 4c2:	98 e3       	ldi	r25, 0x38	; 56
 4c4:	a1 e0       	ldi	r26, 0x01	; 1
 4c6:	81 50       	subi	r24, 0x01	; 1
 4c8:	90 40       	sbci	r25, 0x00	; 0
 4ca:	a0 40       	sbci	r26, 0x00	; 0
 4cc:	e1 f7       	brne	.-8      	; 0x4c6 <_Z9start_usbv+0xc>
 4ce:	00 c0       	rjmp	.+0      	; 0x4d0 <_Z9start_usbv+0x16>
 4d0:	00 00       	nop
 4d2:	78 94       	sei
 4d4:	08 95       	ret

000004d6 <_ZL17usb_wait_in_readyv>:
 4d6:	80 91 e8 00 	lds	r24, 0x00E8
 4da:	80 ff       	sbrs	r24, 0
 4dc:	fc cf       	rjmp	.-8      	; 0x4d6 <_ZL17usb_wait_in_readyv>
 4de:	08 95       	ret

000004e0 <_Z8usb_initv>:
 4e0:	81 e0       	ldi	r24, 0x01	; 1
 4e2:	80 93 d7 00 	sts	0x00D7, r24
 4e6:	81 ea       	ldi	r24, 0xA1	; 161
 4e8:	80 93 d8 00 	sts	0x00D8, r24
 4ec:	82 e1       	ldi	r24, 0x12	; 18
 4ee:	89 bd       	out	0x29, r24	; 41
 4f0:	89 b5       	in	r24, 0x29	; 41
 4f2:	80 ff       	sbrs	r24, 0
 4f4:	fd cf       	rjmp	.-6      	; 0x4f0 <_Z8usb_initv+0x10>
 4f6:	81 e9       	ldi	r24, 0x91	; 145
 4f8:	80 93 d8 00 	sts	0x00D8, r24
 4fc:	10 92 e0 00 	sts	0x00E0, r1
 500:	10 92 0d 01 	sts	0x010D, r1
 504:	8c e0       	ldi	r24, 0x0C	; 12
 506:	80 93 e2 00 	sts	0x00E2, r24
 50a:	78 94       	sei
 50c:	08 95       	ret

0000050e <_Z14usb_configuredv>:
 50e:	80 91 0d 01 	lds	r24, 0x010D
 512:	08 95       	ret

00000514 <_Z18usb_gamepad_updatePc>:
 514:	fc 01       	movw	r30, r24
 516:	80 91 0d 01 	lds	r24, 0x010D
 51a:	88 23       	and	r24, r24
 51c:	09 f4       	brne	.+2      	; 0x520 <_Z18usb_gamepad_updatePc+0xc>
 51e:	3e c0       	rjmp	.+124    	; 0x59c <_Z18usb_gamepad_updatePc+0x88>
 520:	2f b7       	in	r18, 0x3f	; 63
 522:	f8 94       	cli
 524:	83 e0       	ldi	r24, 0x03	; 3
 526:	80 93 e9 00 	sts	0x00E9, r24
 52a:	80 91 e4 00 	lds	r24, 0x00E4
 52e:	8e 5c       	subi	r24, 0xCE	; 206
 530:	93 e0       	ldi	r25, 0x03	; 3
 532:	30 91 e8 00 	lds	r19, 0x00E8
 536:	35 fd       	sbrc	r19, 5
 538:	0e c0       	rjmp	.+28     	; 0x556 <_Z18usb_gamepad_updatePc+0x42>
 53a:	2f bf       	out	0x3f, r18	; 63
 53c:	20 91 0d 01 	lds	r18, 0x010D
 540:	22 23       	and	r18, r18
 542:	61 f1       	breq	.+88     	; 0x59c <_Z18usb_gamepad_updatePc+0x88>
 544:	20 91 e4 00 	lds	r18, 0x00E4
 548:	28 17       	cp	r18, r24
 54a:	51 f1       	breq	.+84     	; 0x5a0 <_Z18usb_gamepad_updatePc+0x8c>
 54c:	2f b7       	in	r18, 0x3f	; 63
 54e:	f8 94       	cli
 550:	90 93 e9 00 	sts	0x00E9, r25
 554:	ee cf       	rjmp	.-36     	; 0x532 <_Z18usb_gamepad_updatePc+0x1e>
 556:	81 81       	ldd	r24, Z+1	; 0x01
 558:	80 93 f1 00 	sts	0x00F1, r24
 55c:	82 81       	ldd	r24, Z+2	; 0x02
 55e:	82 95       	swap	r24
 560:	8f 70       	andi	r24, 0x0F	; 15
 562:	80 93 f1 00 	sts	0x00F1, r24
 566:	82 81       	ldd	r24, Z+2	; 0x02
 568:	90 e0       	ldi	r25, 0x00	; 0
 56a:	34 e0       	ldi	r19, 0x04	; 4
 56c:	88 0f       	add	r24, r24
 56e:	99 1f       	adc	r25, r25
 570:	3a 95       	dec	r19
 572:	e1 f7       	brne	.-8      	; 0x56c <_Z18usb_gamepad_updatePc+0x58>
 574:	80 93 f1 00 	sts	0x00F1, r24
 578:	83 81       	ldd	r24, Z+3	; 0x03
 57a:	80 93 f1 00 	sts	0x00F1, r24
 57e:	84 81       	ldd	r24, Z+4	; 0x04
 580:	80 93 f1 00 	sts	0x00F1, r24
 584:	85 81       	ldd	r24, Z+5	; 0x05
 586:	80 93 f1 00 	sts	0x00F1, r24
 58a:	86 81       	ldd	r24, Z+6	; 0x06
 58c:	80 93 f1 00 	sts	0x00F1, r24
 590:	8a e3       	ldi	r24, 0x3A	; 58
 592:	80 93 e8 00 	sts	0x00E8, r24
 596:	2f bf       	out	0x3f, r18	; 63
 598:	80 e0       	ldi	r24, 0x00	; 0
 59a:	08 95       	ret
 59c:	8f ef       	ldi	r24, 0xFF	; 255
 59e:	08 95       	ret
 5a0:	8f ef       	ldi	r24, 0xFF	; 255
 5a2:	08 95       	ret

000005a4 <_Z17usb_debug_putcharh>:
 5a4:	90 91 0d 01 	lds	r25, 0x010D
 5a8:	99 23       	and	r25, r25
 5aa:	09 f4       	brne	.+2      	; 0x5ae <_Z17usb_debug_putcharh+0xa>
 5ac:	3d c0       	rjmp	.+122    	; 0x628 <_Z17usb_debug_putcharh+0x84>
 5ae:	9f b7       	in	r25, 0x3f	; 63
 5b0:	f8 94       	cli
 5b2:	24 e0       	ldi	r18, 0x04	; 4
 5b4:	20 93 e9 00 	sts	0x00E9, r18
 5b8:	20 91 0e 01 	lds	r18, 0x010E
 5bc:	22 23       	and	r18, r18
 5be:	41 f0       	breq	.+16     	; 0x5d0 <_Z17usb_debug_putcharh+0x2c>
 5c0:	20 91 e8 00 	lds	r18, 0x00E8
 5c4:	25 fd       	sbrc	r18, 5
 5c6:	02 c0       	rjmp	.+4      	; 0x5cc <_Z17usb_debug_putcharh+0x28>
 5c8:	9f bf       	out	0x3f, r25	; 63
 5ca:	2e c0       	rjmp	.+92     	; 0x628 <_Z17usb_debug_putcharh+0x84>
 5cc:	10 92 0e 01 	sts	0x010E, r1
 5d0:	20 91 e4 00 	lds	r18, 0x00E4
 5d4:	2c 5f       	subi	r18, 0xFC	; 252
 5d6:	34 e0       	ldi	r19, 0x04	; 4
 5d8:	40 91 e8 00 	lds	r20, 0x00E8
 5dc:	45 fd       	sbrc	r20, 5
 5de:	12 c0       	rjmp	.+36     	; 0x604 <_Z17usb_debug_putcharh+0x60>
 5e0:	9f bf       	out	0x3f, r25	; 63
 5e2:	90 91 e4 00 	lds	r25, 0x00E4
 5e6:	92 17       	cp	r25, r18
 5e8:	21 f4       	brne	.+8      	; 0x5f2 <_Z17usb_debug_putcharh+0x4e>
 5ea:	81 e0       	ldi	r24, 0x01	; 1
 5ec:	80 93 0e 01 	sts	0x010E, r24
 5f0:	1b c0       	rjmp	.+54     	; 0x628 <_Z17usb_debug_putcharh+0x84>
 5f2:	90 91 0d 01 	lds	r25, 0x010D
 5f6:	99 23       	and	r25, r25
 5f8:	c9 f0       	breq	.+50     	; 0x62c <_Z17usb_debug_putcharh+0x88>
 5fa:	9f b7       	in	r25, 0x3f	; 63
 5fc:	f8 94       	cli
 5fe:	30 93 e9 00 	sts	0x00E9, r19
 602:	ea cf       	rjmp	.-44     	; 0x5d8 <_Z17usb_debug_putcharh+0x34>
 604:	80 93 f1 00 	sts	0x00F1, r24
 608:	80 91 e8 00 	lds	r24, 0x00E8
 60c:	85 fd       	sbrc	r24, 5
 60e:	06 c0       	rjmp	.+12     	; 0x61c <_Z17usb_debug_putcharh+0x78>
 610:	8a e3       	ldi	r24, 0x3A	; 58
 612:	80 93 e8 00 	sts	0x00E8, r24
 616:	10 92 0c 01 	sts	0x010C, r1
 61a:	03 c0       	rjmp	.+6      	; 0x622 <_Z17usb_debug_putcharh+0x7e>
 61c:	82 e0       	ldi	r24, 0x02	; 2
 61e:	80 93 0c 01 	sts	0x010C, r24
 622:	9f bf       	out	0x3f, r25	; 63
 624:	80 e0       	ldi	r24, 0x00	; 0
 626:	08 95       	ret
 628:	8f ef       	ldi	r24, 0xFF	; 255
 62a:	08 95       	ret
 62c:	8f ef       	ldi	r24, 0xFF	; 255
 62e:	08 95       	ret

00000630 <_Z22usb_debug_flush_outputv>:
 630:	8f b7       	in	r24, 0x3f	; 63
 632:	f8 94       	cli
 634:	90 91 0c 01 	lds	r25, 0x010C
 638:	99 23       	and	r25, r25
 63a:	79 f0       	breq	.+30     	; 0x65a <_Z22usb_debug_flush_outputv+0x2a>
 63c:	94 e0       	ldi	r25, 0x04	; 4
 63e:	90 93 e9 00 	sts	0x00E9, r25
 642:	02 c0       	rjmp	.+4      	; 0x648 <_Z22usb_debug_flush_outputv+0x18>
 644:	10 92 f1 00 	sts	0x00F1, r1
 648:	90 91 e8 00 	lds	r25, 0x00E8
 64c:	95 fd       	sbrc	r25, 5
 64e:	fa cf       	rjmp	.-12     	; 0x644 <_Z22usb_debug_flush_outputv+0x14>
 650:	9a e3       	ldi	r25, 0x3A	; 58
 652:	90 93 e8 00 	sts	0x00E8, r25
 656:	10 92 0c 01 	sts	0x010C, r1
 65a:	8f bf       	out	0x3f, r24	; 63
 65c:	08 95       	ret

0000065e <__vector_10>:
 65e:	1f 92       	push	r1
 660:	0f 92       	push	r0
 662:	0f b6       	in	r0, 0x3f	; 63
 664:	0f 92       	push	r0
 666:	11 24       	eor	r1, r1
 668:	2f 93       	push	r18
 66a:	3f 93       	push	r19
 66c:	4f 93       	push	r20
 66e:	5f 93       	push	r21
 670:	6f 93       	push	r22
 672:	7f 93       	push	r23
 674:	8f 93       	push	r24
 676:	9f 93       	push	r25
 678:	af 93       	push	r26
 67a:	bf 93       	push	r27
 67c:	ef 93       	push	r30
 67e:	ff 93       	push	r31
 680:	80 91 e1 00 	lds	r24, 0x00E1
 684:	10 92 e1 00 	sts	0x00E1, r1
 688:	83 ff       	sbrs	r24, 3
 68a:	0f c0       	rjmp	.+30     	; 0x6aa <__vector_10+0x4c>
 68c:	10 92 e9 00 	sts	0x00E9, r1
 690:	91 e0       	ldi	r25, 0x01	; 1
 692:	90 93 eb 00 	sts	0x00EB, r25
 696:	10 92 ec 00 	sts	0x00EC, r1
 69a:	92 e2       	ldi	r25, 0x22	; 34
 69c:	90 93 ed 00 	sts	0x00ED, r25
 6a0:	98 e0       	ldi	r25, 0x08	; 8
 6a2:	90 93 f0 00 	sts	0x00F0, r25
 6a6:	10 92 0d 01 	sts	0x010D, r1
 6aa:	82 ff       	sbrs	r24, 2
 6ac:	1a c0       	rjmp	.+52     	; 0x6e2 <__vector_10+0x84>
 6ae:	80 91 0d 01 	lds	r24, 0x010D
 6b2:	88 23       	and	r24, r24
 6b4:	b1 f0       	breq	.+44     	; 0x6e2 <__vector_10+0x84>
 6b6:	80 91 0c 01 	lds	r24, 0x010C
 6ba:	88 23       	and	r24, r24
 6bc:	91 f0       	breq	.+36     	; 0x6e2 <__vector_10+0x84>
 6be:	81 50       	subi	r24, 0x01	; 1
 6c0:	80 93 0c 01 	sts	0x010C, r24
 6c4:	88 23       	and	r24, r24
 6c6:	69 f4       	brne	.+26     	; 0x6e2 <__vector_10+0x84>
 6c8:	84 e0       	ldi	r24, 0x04	; 4
 6ca:	80 93 e9 00 	sts	0x00E9, r24
 6ce:	02 c0       	rjmp	.+4      	; 0x6d4 <__vector_10+0x76>
 6d0:	10 92 f1 00 	sts	0x00F1, r1
 6d4:	80 91 e8 00 	lds	r24, 0x00E8
 6d8:	85 fd       	sbrc	r24, 5
 6da:	fa cf       	rjmp	.-12     	; 0x6d0 <__vector_10+0x72>
 6dc:	8a e3       	ldi	r24, 0x3A	; 58
 6de:	80 93 e8 00 	sts	0x00E8, r24
 6e2:	80 91 da 00 	lds	r24, 0x00DA
 6e6:	80 ff       	sbrs	r24, 0
 6e8:	3c c0       	rjmp	.+120    	; 0x762 <__vector_10+0x104>
 6ea:	80 91 da 00 	lds	r24, 0x00DA
 6ee:	8e 7f       	andi	r24, 0xFE	; 254
 6f0:	80 93 da 00 	sts	0x00DA, r24
 6f4:	76 98       	cbi	0x0e, 6	; 14
 6f6:	6e 98       	cbi	0x0d, 6	; 13
 6f8:	8f e7       	ldi	r24, 0x7F	; 127
 6fa:	9a e1       	ldi	r25, 0x1A	; 26
 6fc:	a6 e0       	ldi	r26, 0x06	; 6
 6fe:	81 50       	subi	r24, 0x01	; 1
 700:	90 40       	sbci	r25, 0x00	; 0
 702:	a0 40       	sbci	r26, 0x00	; 0
 704:	e1 f7       	brne	.-8      	; 0x6fe <__vector_10+0xa0>
 706:	00 c0       	rjmp	.+0      	; 0x708 <__vector_10+0xaa>
 708:	00 00       	nop
 70a:	80 91 d9 00 	lds	r24, 0x00D9
 70e:	80 ff       	sbrs	r24, 0
 710:	23 c0       	rjmp	.+70     	; 0x758 <__vector_10+0xfa>
 712:	80 91 0d 01 	lds	r24, 0x010D
 716:	88 23       	and	r24, r24
 718:	89 f4       	brne	.+34     	; 0x73c <__vector_10+0xde>
 71a:	0e 94 70 02 	call	0x4e0	; 0x4e0 <_Z8usb_initv>
 71e:	8f ef       	ldi	r24, 0xFF	; 255
 720:	99 e6       	ldi	r25, 0x69	; 105
 722:	a8 e1       	ldi	r26, 0x18	; 24
 724:	81 50       	subi	r24, 0x01	; 1
 726:	90 40       	sbci	r25, 0x00	; 0
 728:	a0 40       	sbci	r26, 0x00	; 0
 72a:	e1 f7       	brne	.-8      	; 0x724 <__vector_10+0xc6>
 72c:	00 c0       	rjmp	.+0      	; 0x72e <__vector_10+0xd0>
 72e:	00 00       	nop
 730:	37 99       	sbic	0x06, 7	; 6
 732:	04 c0       	rjmp	.+8      	; 0x73c <__vector_10+0xde>
 734:	80 91 0d 01 	lds	r24, 0x010D
 738:	88 23       	and	r24, r24
 73a:	e1 f3       	breq	.-8      	; 0x734 <__vector_10+0xd6>
 73c:	80 91 0d 01 	lds	r24, 0x010D
 740:	88 23       	and	r24, r24
 742:	69 f4       	brne	.+26     	; 0x75e <__vector_10+0x100>
 744:	80 91 e4 00 	lds	r24, 0x00E4
 748:	88 23       	and	r24, r24
 74a:	11 f4       	brne	.+4      	; 0x750 <__vector_10+0xf2>
 74c:	6e 9a       	sbi	0x0d, 6	; 13
 74e:	76 98       	cbi	0x0e, 6	; 14
 750:	81 ea       	ldi	r24, 0xA1	; 161
 752:	80 93 d8 00 	sts	0x00D8, r24
 756:	05 c0       	rjmp	.+10     	; 0x762 <__vector_10+0x104>
 758:	81 ea       	ldi	r24, 0xA1	; 161
 75a:	80 93 d8 00 	sts	0x00D8, r24
 75e:	6e 9a       	sbi	0x0d, 6	; 13
 760:	76 98       	cbi	0x0e, 6	; 14
 762:	ff 91       	pop	r31
 764:	ef 91       	pop	r30
 766:	bf 91       	pop	r27
 768:	af 91       	pop	r26
 76a:	9f 91       	pop	r25
 76c:	8f 91       	pop	r24
 76e:	7f 91       	pop	r23
 770:	6f 91       	pop	r22
 772:	5f 91       	pop	r21
 774:	4f 91       	pop	r20
 776:	3f 91       	pop	r19
 778:	2f 91       	pop	r18
 77a:	0f 90       	pop	r0
 77c:	0f be       	out	0x3f, r0	; 63
 77e:	0f 90       	pop	r0
 780:	1f 90       	pop	r1
 782:	18 95       	reti

00000784 <__vector_11>:
 784:	1f 92       	push	r1
 786:	0f 92       	push	r0
 788:	0f b6       	in	r0, 0x3f	; 63
 78a:	0f 92       	push	r0
 78c:	11 24       	eor	r1, r1
 78e:	ef 92       	push	r14
 790:	ff 92       	push	r15
 792:	0f 93       	push	r16
 794:	1f 93       	push	r17
 796:	2f 93       	push	r18
 798:	3f 93       	push	r19
 79a:	4f 93       	push	r20
 79c:	5f 93       	push	r21
 79e:	6f 93       	push	r22
 7a0:	7f 93       	push	r23
 7a2:	8f 93       	push	r24
 7a4:	9f 93       	push	r25
 7a6:	af 93       	push	r26
 7a8:	bf 93       	push	r27
 7aa:	ef 93       	push	r30
 7ac:	ff 93       	push	r31
 7ae:	cf 93       	push	r28
 7b0:	df 93       	push	r29
 7b2:	0f 92       	push	r0
 7b4:	cd b7       	in	r28, 0x3d	; 61
 7b6:	de b7       	in	r29, 0x3e	; 62
 7b8:	10 92 e9 00 	sts	0x00E9, r1
 7bc:	80 91 e8 00 	lds	r24, 0x00E8
 7c0:	83 ff       	sbrs	r24, 3
 7c2:	3b c1       	rjmp	.+630    	; 0xa3a <__vector_11+0x2b6>
 7c4:	20 91 f1 00 	lds	r18, 0x00F1
 7c8:	30 91 f1 00 	lds	r19, 0x00F1
 7cc:	00 91 f1 00 	lds	r16, 0x00F1
 7d0:	10 e0       	ldi	r17, 0x00	; 0
 7d2:	40 91 f1 00 	lds	r20, 0x00F1
 7d6:	94 2f       	mov	r25, r20
 7d8:	80 e0       	ldi	r24, 0x00	; 0
 7da:	08 2b       	or	r16, r24
 7dc:	19 2b       	or	r17, r25
 7de:	e0 90 f1 00 	lds	r14, 0x00F1
 7e2:	ff 24       	eor	r15, r15
 7e4:	40 91 f1 00 	lds	r20, 0x00F1
 7e8:	94 2f       	mov	r25, r20
 7ea:	80 e0       	ldi	r24, 0x00	; 0
 7ec:	e8 2a       	or	r14, r24
 7ee:	f9 2a       	or	r15, r25
 7f0:	60 91 f1 00 	lds	r22, 0x00F1
 7f4:	70 e0       	ldi	r23, 0x00	; 0
 7f6:	40 91 f1 00 	lds	r20, 0x00F1
 7fa:	94 2f       	mov	r25, r20
 7fc:	80 e0       	ldi	r24, 0x00	; 0
 7fe:	68 2b       	or	r22, r24
 800:	79 2b       	or	r23, r25
 802:	82 ef       	ldi	r24, 0xF2	; 242
 804:	80 93 e8 00 	sts	0x00E8, r24
 808:	36 30       	cpi	r19, 0x06	; 6
 80a:	09 f0       	breq	.+2      	; 0x80e <__vector_11+0x8a>
 80c:	4e c0       	rjmp	.+156    	; 0x8aa <__vector_11+0x126>
 80e:	49 e0       	ldi	r20, 0x09	; 9
 810:	2c ea       	ldi	r18, 0xAC	; 172
 812:	30 e0       	ldi	r19, 0x00	; 0
 814:	f9 01       	movw	r30, r18
 816:	85 91       	lpm	r24, Z+
 818:	94 91       	lpm	r25, Z
 81a:	80 17       	cp	r24, r16
 81c:	91 07       	cpc	r25, r17
 81e:	39 f4       	brne	.+14     	; 0x82e <__vector_11+0xaa>
 820:	f9 01       	movw	r30, r18
 822:	32 96       	adiw	r30, 0x02	; 2
 824:	85 91       	lpm	r24, Z+
 826:	94 91       	lpm	r25, Z
 828:	8e 15       	cp	r24, r14
 82a:	9f 05       	cpc	r25, r15
 82c:	29 f0       	breq	.+10     	; 0x838 <__vector_11+0xb4>
 82e:	29 5f       	subi	r18, 0xF9	; 249
 830:	3f 4f       	sbci	r19, 0xFF	; 255
 832:	41 50       	subi	r20, 0x01	; 1
 834:	79 f7       	brne	.-34     	; 0x814 <__vector_11+0x90>
 836:	01 c1       	rjmp	.+514    	; 0xa3a <__vector_11+0x2b6>
 838:	f9 01       	movw	r30, r18
 83a:	34 96       	adiw	r30, 0x04	; 4
 83c:	45 91       	lpm	r20, Z+
 83e:	54 91       	lpm	r21, Z
 840:	ca 01       	movw	r24, r20
 842:	2a 5f       	subi	r18, 0xFA	; 250
 844:	3f 4f       	sbci	r19, 0xFF	; 255
 846:	f9 01       	movw	r30, r18
 848:	24 91       	lpm	r18, Z
 84a:	6f 3f       	cpi	r22, 0xFF	; 255
 84c:	71 05       	cpc	r23, r1
 84e:	19 f0       	breq	.+6      	; 0x856 <__vector_11+0xd2>
 850:	10 f0       	brcs	.+4      	; 0x856 <__vector_11+0xd2>
 852:	6f ef       	ldi	r22, 0xFF	; 255
 854:	70 e0       	ldi	r23, 0x00	; 0
 856:	62 17       	cp	r22, r18
 858:	08 f4       	brcc	.+2      	; 0x85c <__vector_11+0xd8>
 85a:	26 2f       	mov	r18, r22
 85c:	ae ef       	ldi	r26, 0xFE	; 254
 85e:	40 91 e8 00 	lds	r20, 0x00E8
 862:	50 e0       	ldi	r21, 0x00	; 0
 864:	ba 01       	movw	r22, r20
 866:	65 70       	andi	r22, 0x05	; 5
 868:	70 70       	andi	r23, 0x00	; 0
 86a:	61 15       	cp	r22, r1
 86c:	71 05       	cpc	r23, r1
 86e:	b9 f3       	breq	.-18     	; 0x85e <__vector_11+0xda>
 870:	42 fd       	sbrc	r20, 2
 872:	e6 c0       	rjmp	.+460    	; 0xa40 <__vector_11+0x2bc>
 874:	32 2f       	mov	r19, r18
 876:	21 32       	cpi	r18, 0x21	; 33
 878:	08 f0       	brcs	.+2      	; 0x87c <__vector_11+0xf8>
 87a:	30 e2       	ldi	r19, 0x20	; 32
 87c:	ac 01       	movw	r20, r24
 87e:	63 2f       	mov	r22, r19
 880:	07 c0       	rjmp	.+14     	; 0x890 <__vector_11+0x10c>
 882:	fa 01       	movw	r30, r20
 884:	4f 5f       	subi	r20, 0xFF	; 255
 886:	5f 4f       	sbci	r21, 0xFF	; 255
 888:	e4 91       	lpm	r30, Z
 88a:	e0 93 f1 00 	sts	0x00F1, r30
 88e:	61 50       	subi	r22, 0x01	; 1
 890:	66 23       	and	r22, r22
 892:	b9 f7       	brne	.-18     	; 0x882 <__vector_11+0xfe>
 894:	83 0f       	add	r24, r19
 896:	91 1d       	adc	r25, r1
 898:	23 1b       	sub	r18, r19
 89a:	a0 93 e8 00 	sts	0x00E8, r26
 89e:	22 23       	and	r18, r18
 8a0:	f1 f6       	brne	.-68     	; 0x85e <__vector_11+0xda>
 8a2:	30 32       	cpi	r19, 0x20	; 32
 8a4:	09 f0       	breq	.+2      	; 0x8a8 <__vector_11+0x124>
 8a6:	cc c0       	rjmp	.+408    	; 0xa40 <__vector_11+0x2bc>
 8a8:	da cf       	rjmp	.-76     	; 0x85e <__vector_11+0xda>
 8aa:	35 30       	cpi	r19, 0x05	; 5
 8ac:	49 f4       	brne	.+18     	; 0x8c0 <__vector_11+0x13c>
 8ae:	8e ef       	ldi	r24, 0xFE	; 254
 8b0:	80 93 e8 00 	sts	0x00E8, r24
 8b4:	0e 94 6b 02 	call	0x4d6	; 0x4d6 <_ZL17usb_wait_in_readyv>
 8b8:	00 68       	ori	r16, 0x80	; 128
 8ba:	00 93 e3 00 	sts	0x00E3, r16
 8be:	c0 c0       	rjmp	.+384    	; 0xa40 <__vector_11+0x2bc>
 8c0:	39 30       	cpi	r19, 0x09	; 9
 8c2:	49 f5       	brne	.+82     	; 0x916 <__vector_11+0x192>
 8c4:	22 23       	and	r18, r18
 8c6:	09 f0       	breq	.+2      	; 0x8ca <__vector_11+0x146>
 8c8:	6c c0       	rjmp	.+216    	; 0x9a2 <__vector_11+0x21e>
 8ca:	00 93 0d 01 	sts	0x010D, r16
 8ce:	8e ef       	ldi	r24, 0xFE	; 254
 8d0:	80 93 e8 00 	sts	0x00E8, r24
 8d4:	41 e0       	ldi	r20, 0x01	; 1
 8d6:	8b ee       	ldi	r24, 0xEB	; 235
 8d8:	90 e0       	ldi	r25, 0x00	; 0
 8da:	01 c0       	rjmp	.+2      	; 0x8de <__vector_11+0x15a>
 8dc:	c9 01       	movw	r24, r18
 8de:	40 93 e9 00 	sts	0x00E9, r20
 8e2:	9c 01       	movw	r18, r24
 8e4:	2f 5f       	subi	r18, 0xFF	; 255
 8e6:	3f 4f       	sbci	r19, 0xFF	; 255
 8e8:	fc 01       	movw	r30, r24
 8ea:	54 91       	lpm	r21, Z
 8ec:	50 93 eb 00 	sts	0x00EB, r21
 8f0:	55 23       	and	r21, r21
 8f2:	61 f0       	breq	.+24     	; 0x90c <__vector_11+0x188>
 8f4:	f9 01       	movw	r30, r18
 8f6:	24 91       	lpm	r18, Z
 8f8:	20 93 ec 00 	sts	0x00EC, r18
 8fc:	9c 01       	movw	r18, r24
 8fe:	2d 5f       	subi	r18, 0xFD	; 253
 900:	3f 4f       	sbci	r19, 0xFF	; 255
 902:	02 96       	adiw	r24, 0x02	; 2
 904:	fc 01       	movw	r30, r24
 906:	84 91       	lpm	r24, Z
 908:	80 93 ed 00 	sts	0x00ED, r24
 90c:	4f 5f       	subi	r20, 0xFF	; 255
 90e:	45 30       	cpi	r20, 0x05	; 5
 910:	29 f7       	brne	.-54     	; 0x8dc <__vector_11+0x158>
 912:	8e e1       	ldi	r24, 0x1E	; 30
 914:	41 c0       	rjmp	.+130    	; 0x998 <__vector_11+0x214>
 916:	38 30       	cpi	r19, 0x08	; 8
 918:	41 f4       	brne	.+16     	; 0x92a <__vector_11+0x1a6>
 91a:	20 38       	cpi	r18, 0x80	; 128
 91c:	09 f0       	breq	.+2      	; 0x920 <__vector_11+0x19c>
 91e:	41 c0       	rjmp	.+130    	; 0x9a2 <__vector_11+0x21e>
 920:	0e 94 6b 02 	call	0x4d6	; 0x4d6 <_ZL17usb_wait_in_readyv>
 924:	80 91 0d 01 	lds	r24, 0x010D
 928:	54 c0       	rjmp	.+168    	; 0x9d2 <__vector_11+0x24e>
 92a:	33 23       	and	r19, r19
 92c:	a1 f4       	brne	.+40     	; 0x956 <__vector_11+0x1d2>
 92e:	29 83       	std	Y+1, r18	; 0x01
 930:	0e 94 6b 02 	call	0x4d6	; 0x4d6 <_ZL17usb_wait_in_readyv>
 934:	29 81       	ldd	r18, Y+1	; 0x01
 936:	22 38       	cpi	r18, 0x82	; 130
 938:	51 f4       	brne	.+20     	; 0x94e <__vector_11+0x1ca>
 93a:	e0 92 e9 00 	sts	0x00E9, r14
 93e:	90 91 eb 00 	lds	r25, 0x00EB
 942:	81 e0       	ldi	r24, 0x01	; 1
 944:	95 ff       	sbrs	r25, 5
 946:	80 e0       	ldi	r24, 0x00	; 0
 948:	10 92 e9 00 	sts	0x00E9, r1
 94c:	01 c0       	rjmp	.+2      	; 0x950 <__vector_11+0x1cc>
 94e:	80 e0       	ldi	r24, 0x00	; 0
 950:	80 93 f1 00 	sts	0x00F1, r24
 954:	35 c0       	rjmp	.+106    	; 0x9c0 <__vector_11+0x23c>
 956:	31 30       	cpi	r19, 0x01	; 1
 958:	11 f0       	breq	.+4      	; 0x95e <__vector_11+0x1da>
 95a:	33 30       	cpi	r19, 0x03	; 3
 95c:	11 f5       	brne	.+68     	; 0x9a2 <__vector_11+0x21e>
 95e:	22 30       	cpi	r18, 0x02	; 2
 960:	01 f5       	brne	.+64     	; 0x9a2 <__vector_11+0x21e>
 962:	01 15       	cp	r16, r1
 964:	11 05       	cpc	r17, r1
 966:	e9 f4       	brne	.+58     	; 0x9a2 <__vector_11+0x21e>
 968:	4e 2d       	mov	r20, r14
 96a:	4f 77       	andi	r20, 0x7F	; 127
 96c:	84 2f       	mov	r24, r20
 96e:	81 50       	subi	r24, 0x01	; 1
 970:	84 30       	cpi	r24, 0x04	; 4
 972:	b8 f4       	brcc	.+46     	; 0x9a2 <__vector_11+0x21e>
 974:	8e ef       	ldi	r24, 0xFE	; 254
 976:	80 93 e8 00 	sts	0x00E8, r24
 97a:	40 93 e9 00 	sts	0x00E9, r20
 97e:	33 30       	cpi	r19, 0x03	; 3
 980:	09 f4       	brne	.+2      	; 0x984 <__vector_11+0x200>
 982:	5b c0       	rjmp	.+182    	; 0xa3a <__vector_11+0x2b6>
 984:	89 e1       	ldi	r24, 0x19	; 25
 986:	80 93 eb 00 	sts	0x00EB, r24
 98a:	81 e0       	ldi	r24, 0x01	; 1
 98c:	90 e0       	ldi	r25, 0x00	; 0
 98e:	02 c0       	rjmp	.+4      	; 0x994 <__vector_11+0x210>
 990:	88 0f       	add	r24, r24
 992:	99 1f       	adc	r25, r25
 994:	4a 95       	dec	r20
 996:	e2 f7       	brpl	.-8      	; 0x990 <__vector_11+0x20c>
 998:	80 93 ea 00 	sts	0x00EA, r24
 99c:	10 92 ea 00 	sts	0x00EA, r1
 9a0:	4f c0       	rjmp	.+158    	; 0xa40 <__vector_11+0x2bc>
 9a2:	e1 14       	cp	r14, r1
 9a4:	f1 04       	cpc	r15, r1
 9a6:	11 f5       	brne	.+68     	; 0x9ec <__vector_11+0x268>
 9a8:	21 3a       	cpi	r18, 0xA1	; 161
 9aa:	b1 f4       	brne	.+44     	; 0x9d8 <__vector_11+0x254>
 9ac:	31 30       	cpi	r19, 0x01	; 1
 9ae:	59 f4       	brne	.+22     	; 0x9c6 <__vector_11+0x242>
 9b0:	0e 94 6b 02 	call	0x4d6	; 0x4d6 <_ZL17usb_wait_in_readyv>
 9b4:	10 92 f1 00 	sts	0x00F1, r1
 9b8:	10 92 f1 00 	sts	0x00F1, r1
 9bc:	10 92 f1 00 	sts	0x00F1, r1
 9c0:	10 92 f1 00 	sts	0x00F1, r1
 9c4:	0f c0       	rjmp	.+30     	; 0x9e4 <__vector_11+0x260>
 9c6:	33 30       	cpi	r19, 0x03	; 3
 9c8:	c1 f5       	brne	.+112    	; 0xa3a <__vector_11+0x2b6>
 9ca:	0e 94 6b 02 	call	0x4d6	; 0x4d6 <_ZL17usb_wait_in_readyv>
 9ce:	80 91 08 01 	lds	r24, 0x0108
 9d2:	80 93 f1 00 	sts	0x00F1, r24
 9d6:	06 c0       	rjmp	.+12     	; 0x9e4 <__vector_11+0x260>
 9d8:	21 32       	cpi	r18, 0x21	; 33
 9da:	79 f5       	brne	.+94     	; 0xa3a <__vector_11+0x2b6>
 9dc:	3b 30       	cpi	r19, 0x0B	; 11
 9de:	69 f5       	brne	.+90     	; 0xa3a <__vector_11+0x2b6>
 9e0:	00 93 08 01 	sts	0x0108, r16
 9e4:	8e ef       	ldi	r24, 0xFE	; 254
 9e6:	80 93 e8 00 	sts	0x00E8, r24
 9ea:	2a c0       	rjmp	.+84     	; 0xa40 <__vector_11+0x2bc>
 9ec:	f1 e0       	ldi	r31, 0x01	; 1
 9ee:	ef 16       	cp	r14, r31
 9f0:	f1 04       	cpc	r15, r1
 9f2:	19 f5       	brne	.+70     	; 0xa3a <__vector_11+0x2b6>
 9f4:	31 30       	cpi	r19, 0x01	; 1
 9f6:	09 f5       	brne	.+66     	; 0xa3a <__vector_11+0x2b6>
 9f8:	21 3a       	cpi	r18, 0xA1	; 161
 9fa:	f9 f4       	brne	.+62     	; 0xa3a <__vector_11+0x2b6>
 9fc:	4e ef       	ldi	r20, 0xFE	; 254
 9fe:	80 91 e8 00 	lds	r24, 0x00E8
 a02:	90 e0       	ldi	r25, 0x00	; 0
 a04:	9c 01       	movw	r18, r24
 a06:	25 70       	andi	r18, 0x05	; 5
 a08:	30 70       	andi	r19, 0x00	; 0
 a0a:	21 15       	cp	r18, r1
 a0c:	31 05       	cpc	r19, r1
 a0e:	b9 f3       	breq	.-18     	; 0x9fe <__vector_11+0x27a>
 a10:	82 fd       	sbrc	r24, 2
 a12:	16 c0       	rjmp	.+44     	; 0xa40 <__vector_11+0x2bc>
 a14:	86 2f       	mov	r24, r22
 a16:	61 32       	cpi	r22, 0x21	; 33
 a18:	08 f0       	brcs	.+2      	; 0xa1c <__vector_11+0x298>
 a1a:	80 e2       	ldi	r24, 0x20	; 32
 a1c:	98 2f       	mov	r25, r24
 a1e:	03 c0       	rjmp	.+6      	; 0xa26 <__vector_11+0x2a2>
 a20:	10 92 f1 00 	sts	0x00F1, r1
 a24:	91 50       	subi	r25, 0x01	; 1
 a26:	99 23       	and	r25, r25
 a28:	d9 f7       	brne	.-10     	; 0xa20 <__vector_11+0x29c>
 a2a:	68 1b       	sub	r22, r24
 a2c:	40 93 e8 00 	sts	0x00E8, r20
 a30:	66 23       	and	r22, r22
 a32:	29 f7       	brne	.-54     	; 0x9fe <__vector_11+0x27a>
 a34:	80 32       	cpi	r24, 0x20	; 32
 a36:	21 f4       	brne	.+8      	; 0xa40 <__vector_11+0x2bc>
 a38:	e2 cf       	rjmp	.-60     	; 0x9fe <__vector_11+0x27a>
 a3a:	81 e2       	ldi	r24, 0x21	; 33
 a3c:	80 93 eb 00 	sts	0x00EB, r24
 a40:	0f 90       	pop	r0
 a42:	df 91       	pop	r29
 a44:	cf 91       	pop	r28
 a46:	ff 91       	pop	r31
 a48:	ef 91       	pop	r30
 a4a:	bf 91       	pop	r27
 a4c:	af 91       	pop	r26
 a4e:	9f 91       	pop	r25
 a50:	8f 91       	pop	r24
 a52:	7f 91       	pop	r23
 a54:	6f 91       	pop	r22
 a56:	5f 91       	pop	r21
 a58:	4f 91       	pop	r20
 a5a:	3f 91       	pop	r19
 a5c:	2f 91       	pop	r18
 a5e:	1f 91       	pop	r17
 a60:	0f 91       	pop	r16
 a62:	ff 90       	pop	r15
 a64:	ef 90       	pop	r14
 a66:	0f 90       	pop	r0
 a68:	0f be       	out	0x3f, r0	; 63
 a6a:	0f 90       	pop	r0
 a6c:	1f 90       	pop	r1
 a6e:	18 95       	reti

00000a70 <_ZN4XCVR8startSPIEv>:
 a70:	84 b1       	in	r24, 0x04	; 4
 a72:	87 60       	ori	r24, 0x07	; 7
 a74:	84 b9       	out	0x04, r24	; 4
 a76:	84 e5       	ldi	r24, 0x54	; 84
 a78:	8c bd       	out	0x2c, r24	; 44
 a7a:	81 e0       	ldi	r24, 0x01	; 1
 a7c:	8d bd       	out	0x2d, r24	; 45
 a7e:	08 95       	ret

00000a80 <_ZN4XCVR3SPIEc>:
 a80:	6e bd       	out	0x2e, r22	; 46
 a82:	0d b4       	in	r0, 0x2d	; 45
 a84:	07 fe       	sbrs	r0, 7
 a86:	fd cf       	rjmp	.-6      	; 0xa82 <_ZN4XCVR3SPIEc+0x2>
 a88:	8e b5       	in	r24, 0x2e	; 46
 a8a:	08 95       	ret

00000a8c <_ZN4XCVR5read2Ec>:
 a8c:	0f 93       	push	r16
 a8e:	1f 93       	push	r17
 a90:	cf 93       	push	r28
 a92:	df 93       	push	r29
 a94:	ec 01       	movw	r28, r24
 a96:	28 98       	cbi	0x05, 0	; 5
 a98:	60 68       	ori	r22, 0x80	; 128
 a9a:	0e 94 40 05 	call	0xa80	; 0xa80 <_ZN4XCVR3SPIEc>
 a9e:	ce 01       	movw	r24, r28
 aa0:	60 e0       	ldi	r22, 0x00	; 0
 aa2:	0e 94 40 05 	call	0xa80	; 0xa80 <_ZN4XCVR3SPIEc>
 aa6:	18 2f       	mov	r17, r24
 aa8:	00 e0       	ldi	r16, 0x00	; 0
 aaa:	ce 01       	movw	r24, r28
 aac:	60 e0       	ldi	r22, 0x00	; 0
 aae:	0e 94 40 05 	call	0xa80	; 0xa80 <_ZN4XCVR3SPIEc>
 ab2:	28 9a       	sbi	0x05, 0	; 5
 ab4:	90 e0       	ldi	r25, 0x00	; 0
 ab6:	80 2b       	or	r24, r16
 ab8:	91 2b       	or	r25, r17
 aba:	df 91       	pop	r29
 abc:	cf 91       	pop	r28
 abe:	1f 91       	pop	r17
 ac0:	0f 91       	pop	r16
 ac2:	08 95       	ret

00000ac4 <_ZN4XCVR5checkEv>:
 ac4:	60 e3       	ldi	r22, 0x30	; 48
 ac6:	0e 94 46 05 	call	0xa8c	; 0xa8c <_ZN4XCVR5read2Ec>
 aca:	80 74       	andi	r24, 0x40	; 64
 acc:	08 95       	ret

00000ace <_ZN4XCVR4readEc>:
 ace:	cf 93       	push	r28
 ad0:	df 93       	push	r29
 ad2:	ec 01       	movw	r28, r24
 ad4:	28 98       	cbi	0x05, 0	; 5
 ad6:	60 68       	ori	r22, 0x80	; 128
 ad8:	0e 94 40 05 	call	0xa80	; 0xa80 <_ZN4XCVR3SPIEc>
 adc:	ce 01       	movw	r24, r28
 ade:	60 e0       	ldi	r22, 0x00	; 0
 ae0:	0e 94 40 05 	call	0xa80	; 0xa80 <_ZN4XCVR3SPIEc>
 ae4:	28 9a       	sbi	0x05, 0	; 5
 ae6:	df 91       	pop	r29
 ae8:	cf 91       	pop	r28
 aea:	08 95       	ret

00000aec <_ZN4XCVR5writeEci>:
 aec:	0f 93       	push	r16
 aee:	1f 93       	push	r17
 af0:	cf 93       	push	r28
 af2:	df 93       	push	r29
 af4:	00 d0       	rcall	.+0      	; 0xaf6 <_ZN4XCVR5writeEci+0xa>
 af6:	cd b7       	in	r28, 0x3d	; 61
 af8:	de b7       	in	r29, 0x3e	; 62
 afa:	8c 01       	movw	r16, r24
 afc:	28 98       	cbi	0x05, 0	; 5
 afe:	4a 83       	std	Y+2, r20	; 0x02
 b00:	59 83       	std	Y+1, r21	; 0x01
 b02:	0e 94 40 05 	call	0xa80	; 0xa80 <_ZN4XCVR3SPIEc>
 b06:	c8 01       	movw	r24, r16
 b08:	59 81       	ldd	r21, Y+1	; 0x01
 b0a:	65 2f       	mov	r22, r21
 b0c:	0e 94 40 05 	call	0xa80	; 0xa80 <_ZN4XCVR3SPIEc>
 b10:	c8 01       	movw	r24, r16
 b12:	4a 81       	ldd	r20, Y+2	; 0x02
 b14:	64 2f       	mov	r22, r20
 b16:	0e 94 40 05 	call	0xa80	; 0xa80 <_ZN4XCVR3SPIEc>
 b1a:	28 9a       	sbi	0x05, 0	; 5
 b1c:	0f 90       	pop	r0
 b1e:	0f 90       	pop	r0
 b20:	df 91       	pop	r29
 b22:	cf 91       	pop	r28
 b24:	1f 91       	pop	r17
 b26:	0f 91       	pop	r16
 b28:	08 95       	ret

00000b2a <_ZN4XCVR2rxEPc>:
 b2a:	af 92       	push	r10
 b2c:	bf 92       	push	r11
 b2e:	cf 92       	push	r12
 b30:	df 92       	push	r13
 b32:	ef 92       	push	r14
 b34:	ff 92       	push	r15
 b36:	0f 93       	push	r16
 b38:	1f 93       	push	r17
 b3a:	cf 93       	push	r28
 b3c:	df 93       	push	r29
 b3e:	0f 92       	push	r0
 b40:	cd b7       	in	r28, 0x3d	; 61
 b42:	de b7       	in	r29, 0x3e	; 62
 b44:	8c 01       	movw	r16, r24
 b46:	f6 2e       	mov	r15, r22
 b48:	e7 2e       	mov	r14, r23
 b4a:	fc 01       	movw	r30, r24
 b4c:	40 81       	ld	r20, Z
 b4e:	50 e0       	ldi	r21, 0x00	; 0
 b50:	40 68       	ori	r20, 0x80	; 128
 b52:	67 e0       	ldi	r22, 0x07	; 7
 b54:	0e 94 76 05 	call	0xaec	; 0xaec <_ZN4XCVR5writeEci>
 b58:	20 e2       	ldi	r18, 0x20	; 32
 b5a:	c2 2e       	mov	r12, r18
 b5c:	2e e4       	ldi	r18, 0x4E	; 78
 b5e:	d2 2e       	mov	r13, r18
 b60:	c8 01       	movw	r24, r16
 b62:	0e 94 62 05 	call	0xac4	; 0xac4 <_ZN4XCVR5checkEv>
 b66:	88 23       	and	r24, r24
 b68:	81 f5       	brne	.+96     	; 0xbca <_ZN4XCVR2rxEPc+0xa0>
 b6a:	08 94       	sec
 b6c:	c1 08       	sbc	r12, r1
 b6e:	d1 08       	sbc	r13, r1
 b70:	c1 14       	cp	r12, r1
 b72:	d1 04       	cpc	r13, r1
 b74:	51 f1       	breq	.+84     	; 0xbca <_ZN4XCVR2rxEPc+0xa0>
 b76:	f4 cf       	rjmp	.-24     	; 0xb60 <_ZN4XCVR2rxEPc+0x36>
 b78:	c8 01       	movw	r24, r16
 b7a:	64 e3       	ldi	r22, 0x34	; 52
 b7c:	0e 94 67 05 	call	0xace	; 0xace <_ZN4XCVR4readEc>
 b80:	28 2f       	mov	r18, r24
 b82:	2f 73       	andi	r18, 0x3F	; 63
 b84:	cf 2c       	mov	r12, r15
 b86:	de 2c       	mov	r13, r14
 b88:	ee 24       	eor	r14, r14
 b8a:	ff 24       	eor	r15, r15
 b8c:	a2 2e       	mov	r10, r18
 b8e:	bb 24       	eor	r11, r11
 b90:	0c c0       	rjmp	.+24     	; 0xbaa <_ZN4XCVR2rxEPc+0x80>
 b92:	c8 01       	movw	r24, r16
 b94:	62 e3       	ldi	r22, 0x32	; 50
 b96:	29 83       	std	Y+1, r18	; 0x01
 b98:	0e 94 67 05 	call	0xace	; 0xace <_ZN4XCVR4readEc>
 b9c:	f6 01       	movw	r30, r12
 b9e:	81 93       	st	Z+, r24
 ba0:	6f 01       	movw	r12, r30
 ba2:	08 94       	sec
 ba4:	e1 1c       	adc	r14, r1
 ba6:	f1 1c       	adc	r15, r1
 ba8:	29 81       	ldd	r18, Y+1	; 0x01
 baa:	ea 14       	cp	r14, r10
 bac:	fb 04       	cpc	r15, r11
 bae:	8c f3       	brlt	.-30     	; 0xb92 <_ZN4XCVR2rxEPc+0x68>
 bb0:	82 2f       	mov	r24, r18
 bb2:	0f 90       	pop	r0
 bb4:	df 91       	pop	r29
 bb6:	cf 91       	pop	r28
 bb8:	1f 91       	pop	r17
 bba:	0f 91       	pop	r16
 bbc:	ff 90       	pop	r15
 bbe:	ef 90       	pop	r14
 bc0:	df 90       	pop	r13
 bc2:	cf 90       	pop	r12
 bc4:	bf 90       	pop	r11
 bc6:	af 90       	pop	r10
 bc8:	08 95       	ret
 bca:	c8 01       	movw	r24, r16
 bcc:	0e 94 62 05 	call	0xac4	; 0xac4 <_ZN4XCVR5checkEv>
 bd0:	88 23       	and	r24, r24
 bd2:	91 f6       	brne	.-92     	; 0xb78 <_ZN4XCVR2rxEPc+0x4e>
 bd4:	20 e0       	ldi	r18, 0x00	; 0
 bd6:	ec cf       	rjmp	.-40     	; 0xbb0 <_ZN4XCVR2rxEPc+0x86>

00000bd8 <_ZN4XCVRC1EcPii>:
 bd8:	cf 92       	push	r12
 bda:	df 92       	push	r13
 bdc:	ef 92       	push	r14
 bde:	ff 92       	push	r15
 be0:	0f 93       	push	r16
 be2:	1f 93       	push	r17
 be4:	cf 93       	push	r28
 be6:	df 93       	push	r29
 be8:	0f 92       	push	r0
 bea:	cd b7       	in	r28, 0x3d	; 61
 bec:	de b7       	in	r29, 0x3e	; 62
 bee:	6c 01       	movw	r12, r24
 bf0:	8a 01       	movw	r16, r20
 bf2:	79 01       	movw	r14, r18
 bf4:	69 83       	std	Y+1, r22	; 0x01
 bf6:	0e 94 38 05 	call	0xa70	; 0xa70 <_ZN4XCVR8startSPIEv>
 bfa:	69 81       	ldd	r22, Y+1	; 0x01
 bfc:	d6 01       	movw	r26, r12
 bfe:	6c 93       	st	X, r22
 c00:	8f e7       	ldi	r24, 0x7F	; 127
 c02:	9a e1       	ldi	r25, 0x1A	; 26
 c04:	a6 e0       	ldi	r26, 0x06	; 6
 c06:	81 50       	subi	r24, 0x01	; 1
 c08:	90 40       	sbci	r25, 0x00	; 0
 c0a:	a0 40       	sbci	r26, 0x00	; 0
 c0c:	e1 f7       	brne	.-8      	; 0xc06 <_ZN4XCVRC1EcPii+0x2e>
 c0e:	00 c0       	rjmp	.+0      	; 0xc10 <_ZN4XCVRC1EcPii+0x38>
 c10:	00 00       	nop
 c12:	57 9a       	sbi	0x0a, 7	; 10
 c14:	5f 98       	cbi	0x0b, 7	; 11
 c16:	9a e6       	ldi	r25, 0x6A	; 106
 c18:	9a 95       	dec	r25
 c1a:	f1 f7       	brne	.-4      	; 0xc18 <_ZN4XCVRC1EcPii+0x40>
 c1c:	00 c0       	rjmp	.+0      	; 0xc1e <_ZN4XCVRC1EcPii+0x46>
 c1e:	57 98       	cbi	0x0a, 7	; 10
 c20:	af e3       	ldi	r26, 0x3F	; 63
 c22:	bf e1       	ldi	r27, 0x1F	; 31
 c24:	11 97       	sbiw	r26, 0x01	; 1
 c26:	f1 f7       	brne	.-4      	; 0xc24 <_ZN4XCVRC1EcPii+0x4c>
 c28:	00 c0       	rjmp	.+0      	; 0xc2a <_ZN4XCVRC1EcPii+0x52>
 c2a:	00 00       	nop
 c2c:	c6 01       	movw	r24, r12
 c2e:	6b e1       	ldi	r22, 0x1B	; 27
 c30:	40 e0       	ldi	r20, 0x00	; 0
 c32:	52 e4       	ldi	r21, 0x42	; 66
 c34:	0e 94 76 05 	call	0xaec	; 0xaec <_ZN4XCVR5writeEci>
 c38:	c6 01       	movw	r24, r12
 c3a:	60 e0       	ldi	r22, 0x00	; 0
 c3c:	41 ee       	ldi	r20, 0xE1	; 225
 c3e:	5f e6       	ldi	r21, 0x6F	; 111
 c40:	0e 94 76 05 	call	0xaec	; 0xaec <_ZN4XCVR5writeEci>
 c44:	c6 01       	movw	r24, r12
 c46:	62 e0       	ldi	r22, 0x02	; 2
 c48:	47 e1       	ldi	r20, 0x17	; 23
 c4a:	55 e5       	ldi	r21, 0x55	; 85
 c4c:	0e 94 76 05 	call	0xaec	; 0xaec <_ZN4XCVR5writeEci>
 c50:	c6 01       	movw	r24, r12
 c52:	64 e0       	ldi	r22, 0x04	; 4
 c54:	49 ec       	ldi	r20, 0xC9	; 201
 c56:	5c e9       	ldi	r21, 0x9C	; 156
 c58:	0e 94 76 05 	call	0xaec	; 0xaec <_ZN4XCVR5writeEci>
 c5c:	c6 01       	movw	r24, r12
 c5e:	65 e0       	ldi	r22, 0x05	; 5
 c60:	47 e4       	ldi	r20, 0x47	; 71
 c62:	56 e6       	ldi	r21, 0x66	; 102
 c64:	0e 94 76 05 	call	0xaec	; 0xaec <_ZN4XCVR5writeEci>
 c68:	f6 01       	movw	r30, r12
 c6a:	40 81       	ld	r20, Z
 c6c:	50 e0       	ldi	r21, 0x00	; 0
 c6e:	4f 77       	andi	r20, 0x7F	; 127
 c70:	50 70       	andi	r21, 0x00	; 0
 c72:	4e 29       	or	r20, r14
 c74:	5f 29       	or	r21, r15
 c76:	c6 01       	movw	r24, r12
 c78:	67 e0       	ldi	r22, 0x07	; 7
 c7a:	0e 94 76 05 	call	0xaec	; 0xaec <_ZN4XCVR5writeEci>
 c7e:	c6 01       	movw	r24, r12
 c80:	68 e0       	ldi	r22, 0x08	; 8
 c82:	40 e9       	ldi	r20, 0x90	; 144
 c84:	5c e6       	ldi	r21, 0x6C	; 108
 c86:	0e 94 76 05 	call	0xaec	; 0xaec <_ZN4XCVR5writeEci>
 c8a:	c6 01       	movw	r24, r12
 c8c:	69 e0       	ldi	r22, 0x09	; 9
 c8e:	40 e2       	ldi	r20, 0x20	; 32
 c90:	59 e1       	ldi	r21, 0x19	; 25
 c92:	0e 94 76 05 	call	0xaec	; 0xaec <_ZN4XCVR5writeEci>
 c96:	c6 01       	movw	r24, r12
 c98:	6b e0       	ldi	r22, 0x0B	; 11
 c9a:	48 e0       	ldi	r20, 0x08	; 8
 c9c:	50 e0       	ldi	r21, 0x00	; 0
 c9e:	0e 94 76 05 	call	0xaec	; 0xaec <_ZN4XCVR5writeEci>
 ca2:	c6 01       	movw	r24, r12
 ca4:	6d e0       	ldi	r22, 0x0D	; 13
 ca6:	40 e8       	ldi	r20, 0x80	; 128
 ca8:	58 e4       	ldi	r21, 0x48	; 72
 caa:	0e 94 76 05 	call	0xaec	; 0xaec <_ZN4XCVR5writeEci>
 cae:	c6 01       	movw	r24, r12
 cb0:	66 e1       	ldi	r22, 0x16	; 22
 cb2:	4f ef       	ldi	r20, 0xFF	; 255
 cb4:	50 e0       	ldi	r21, 0x00	; 0
 cb6:	0e 94 76 05 	call	0xaec	; 0xaec <_ZN4XCVR5writeEci>
 cba:	c6 01       	movw	r24, r12
 cbc:	67 e1       	ldi	r22, 0x17	; 23
 cbe:	47 e0       	ldi	r20, 0x07	; 7
 cc0:	50 e8       	ldi	r21, 0x80	; 128
 cc2:	0e 94 76 05 	call	0xaec	; 0xaec <_ZN4XCVR5writeEci>
 cc6:	c6 01       	movw	r24, r12
 cc8:	68 e1       	ldi	r22, 0x18	; 24
 cca:	47 e6       	ldi	r20, 0x67	; 103
 ccc:	50 e0       	ldi	r21, 0x00	; 0
 cce:	0e 94 76 05 	call	0xaec	; 0xaec <_ZN4XCVR5writeEci>
 cd2:	c6 01       	movw	r24, r12
 cd4:	6a e1       	ldi	r22, 0x1A	; 26
 cd6:	40 ee       	ldi	r20, 0xE0	; 224
 cd8:	59 e1       	ldi	r21, 0x19	; 25
 cda:	0e 94 76 05 	call	0xaec	; 0xaec <_ZN4XCVR5writeEci>
 cde:	c6 01       	movw	r24, r12
 ce0:	61 e2       	ldi	r22, 0x21	; 33
 ce2:	40 ef       	ldi	r20, 0xF0	; 240
 ce4:	53 e6       	ldi	r21, 0x63	; 99
 ce6:	0e 94 76 05 	call	0xaec	; 0xaec <_ZN4XCVR5writeEci>
 cea:	c6 01       	movw	r24, r12
 cec:	62 e2       	ldi	r22, 0x22	; 34
 cee:	40 e0       	ldi	r20, 0x00	; 0
 cf0:	50 e3       	ldi	r21, 0x30	; 48
 cf2:	0e 94 76 05 	call	0xaec	; 0xaec <_ZN4XCVR5writeEci>
 cf6:	c6 01       	movw	r24, r12
 cf8:	63 e2       	ldi	r22, 0x23	; 35
 cfa:	41 e8       	ldi	r20, 0x81	; 129
 cfc:	53 e0       	ldi	r21, 0x03	; 3
 cfe:	0e 94 76 05 	call	0xaec	; 0xaec <_ZN4XCVR5writeEci>
 d02:	d8 01       	movw	r26, r16
 d04:	4d 91       	ld	r20, X+
 d06:	5c 91       	ld	r21, X
 d08:	c6 01       	movw	r24, r12
 d0a:	64 e2       	ldi	r22, 0x24	; 36
 d0c:	0e 94 76 05 	call	0xaec	; 0xaec <_ZN4XCVR5writeEci>
 d10:	f8 01       	movw	r30, r16
 d12:	42 81       	ldd	r20, Z+2	; 0x02
 d14:	53 81       	ldd	r21, Z+3	; 0x03
 d16:	c6 01       	movw	r24, r12
 d18:	65 e2       	ldi	r22, 0x25	; 37
 d1a:	0e 94 76 05 	call	0xaec	; 0xaec <_ZN4XCVR5writeEci>
 d1e:	d8 01       	movw	r26, r16
 d20:	14 96       	adiw	r26, 0x04	; 4
 d22:	4d 91       	ld	r20, X+
 d24:	5c 91       	ld	r21, X
 d26:	15 97       	sbiw	r26, 0x05	; 5
 d28:	c6 01       	movw	r24, r12
 d2a:	66 e2       	ldi	r22, 0x26	; 38
 d2c:	0e 94 76 05 	call	0xaec	; 0xaec <_ZN4XCVR5writeEci>
 d30:	f8 01       	movw	r30, r16
 d32:	46 81       	ldd	r20, Z+6	; 0x06
 d34:	57 81       	ldd	r21, Z+7	; 0x07
 d36:	c6 01       	movw	r24, r12
 d38:	67 e2       	ldi	r22, 0x27	; 39
 d3a:	0e 94 76 05 	call	0xaec	; 0xaec <_ZN4XCVR5writeEci>
 d3e:	c6 01       	movw	r24, r12
 d40:	68 e2       	ldi	r22, 0x28	; 40
 d42:	47 e4       	ldi	r20, 0x47	; 71
 d44:	50 e2       	ldi	r21, 0x20	; 32
 d46:	0e 94 76 05 	call	0xaec	; 0xaec <_ZN4XCVR5writeEci>
 d4a:	c6 01       	movw	r24, r12
 d4c:	69 e2       	ldi	r22, 0x29	; 41
 d4e:	40 e0       	ldi	r20, 0x00	; 0
 d50:	58 ef       	ldi	r21, 0xF8	; 248
 d52:	0e 94 76 05 	call	0xaec	; 0xaec <_ZN4XCVR5writeEci>
 d56:	c6 01       	movw	r24, r12
 d58:	6a e2       	ldi	r22, 0x2A	; 42
 d5a:	4f ef       	ldi	r20, 0xFF	; 255
 d5c:	5d ef       	ldi	r21, 0xFD	; 253
 d5e:	0e 94 76 05 	call	0xaec	; 0xaec <_ZN4XCVR5writeEci>
 d62:	0f 90       	pop	r0
 d64:	df 91       	pop	r29
 d66:	cf 91       	pop	r28
 d68:	1f 91       	pop	r17
 d6a:	0f 91       	pop	r16
 d6c:	ff 90       	pop	r15
 d6e:	ef 90       	pop	r14
 d70:	df 90       	pop	r13
 d72:	cf 90       	pop	r12
 d74:	08 95       	ret

00000d76 <_ZN4XCVR5writeEcc>:
 d76:	0f 93       	push	r16
 d78:	1f 93       	push	r17
 d7a:	cf 93       	push	r28
 d7c:	df 93       	push	r29
 d7e:	0f 92       	push	r0
 d80:	cd b7       	in	r28, 0x3d	; 61
 d82:	de b7       	in	r29, 0x3e	; 62
 d84:	8c 01       	movw	r16, r24
 d86:	28 98       	cbi	0x05, 0	; 5
 d88:	49 83       	std	Y+1, r20	; 0x01
 d8a:	0e 94 40 05 	call	0xa80	; 0xa80 <_ZN4XCVR3SPIEc>
 d8e:	c8 01       	movw	r24, r16
 d90:	49 81       	ldd	r20, Y+1	; 0x01
 d92:	64 2f       	mov	r22, r20
 d94:	0e 94 40 05 	call	0xa80	; 0xa80 <_ZN4XCVR3SPIEc>
 d98:	28 9a       	sbi	0x05, 0	; 5
 d9a:	0f 90       	pop	r0
 d9c:	df 91       	pop	r29
 d9e:	cf 91       	pop	r28
 da0:	1f 91       	pop	r17
 da2:	0f 91       	pop	r16
 da4:	08 95       	ret

00000da6 <_ZN4XCVR2txEPcc>:
 da6:	ef 92       	push	r14
 da8:	ff 92       	push	r15
 daa:	0f 93       	push	r16
 dac:	1f 93       	push	r17
 dae:	cf 93       	push	r28
 db0:	df 93       	push	r29
 db2:	8c 01       	movw	r16, r24
 db4:	f6 2e       	mov	r15, r22
 db6:	e4 2e       	mov	r14, r20
 db8:	c6 2f       	mov	r28, r22
 dba:	d7 2f       	mov	r29, r23
 dbc:	05 c0       	rjmp	.+10     	; 0xdc8 <_ZN4XCVR2txEPcc+0x22>
 dbe:	49 91       	ld	r20, Y+
 dc0:	c8 01       	movw	r24, r16
 dc2:	62 e3       	ldi	r22, 0x32	; 50
 dc4:	0e 94 bb 06 	call	0xd76	; 0xd76 <_ZN4XCVR5writeEcc>
 dc8:	8c 2f       	mov	r24, r28
 dca:	8f 19       	sub	r24, r15
 dcc:	8e 15       	cp	r24, r14
 dce:	b8 f3       	brcs	.-18     	; 0xdbe <_ZN4XCVR2txEPcc+0x18>
 dd0:	f8 01       	movw	r30, r16
 dd2:	40 81       	ld	r20, Z
 dd4:	50 e0       	ldi	r21, 0x00	; 0
 dd6:	4f 77       	andi	r20, 0x7F	; 127
 dd8:	50 70       	andi	r21, 0x00	; 0
 dda:	51 60       	ori	r21, 0x01	; 1
 ddc:	c8 01       	movw	r24, r16
 dde:	67 e0       	ldi	r22, 0x07	; 7
 de0:	0e 94 76 05 	call	0xaec	; 0xaec <_ZN4XCVR5writeEci>
 de4:	df 91       	pop	r29
 de6:	cf 91       	pop	r28
 de8:	1f 91       	pop	r17
 dea:	0f 91       	pop	r16
 dec:	ff 90       	pop	r15
 dee:	ef 90       	pop	r14
 df0:	08 95       	ret

00000df2 <main>:
 df2:	cf 93       	push	r28
 df4:	df 93       	push	r29
 df6:	cd b7       	in	r28, 0x3d	; 61
 df8:	de b7       	in	r29, 0x3e	; 62
 dfa:	28 97       	sbiw	r28, 0x08	; 8
 dfc:	0f b6       	in	r0, 0x3f	; 63
 dfe:	f8 94       	cli
 e00:	de bf       	out	0x3e, r29	; 62
 e02:	0f be       	out	0x3f, r0	; 63
 e04:	cd bf       	out	0x3d, r28	; 61
 e06:	8e 01       	movw	r16, r28
 e08:	0e 5f       	subi	r16, 0xFE	; 254
 e0a:	1f 4f       	sbci	r17, 0xFF	; 255
 e0c:	87 e0       	ldi	r24, 0x07	; 7
 e0e:	d8 01       	movw	r26, r16
 e10:	1d 92       	st	X+, r1
 e12:	8a 95       	dec	r24
 e14:	e9 f7       	brne	.-6      	; 0xe10 <main+0x1e>
 e16:	80 e8       	ldi	r24, 0x80	; 128
 e18:	80 93 61 00 	sts	0x0061, r24
 e1c:	81 e0       	ldi	r24, 0x01	; 1
 e1e:	80 93 61 00 	sts	0x0061, r24
 e22:	7e 01       	movw	r14, r28
 e24:	08 94       	sec
 e26:	e1 1c       	adc	r14, r1
 e28:	f1 1c       	adc	r15, r1
 e2a:	c7 01       	movw	r24, r14
 e2c:	6a e0       	ldi	r22, 0x0A	; 10
 e2e:	40 e0       	ldi	r20, 0x00	; 0
 e30:	51 e0       	ldi	r21, 0x01	; 1
 e32:	20 e0       	ldi	r18, 0x00	; 0
 e34:	31 e0       	ldi	r19, 0x01	; 1
 e36:	0e 94 ec 05 	call	0xbd8	; 0xbd8 <_ZN4XCVRC1EcPii>
 e3a:	0e 94 99 01 	call	0x332	; 0x332 <_Z8pinsetupv>
 e3e:	0e 94 2f 01 	call	0x25e	; 0x25e <_Z5ADConv>
 e42:	0e 94 50 02 	call	0x4a0	; 0x4a0 <_Z14unused_modulesv>
 e46:	0e 94 5d 02 	call	0x4ba	; 0x4ba <_Z9start_usbv>
 e4a:	d0 2e       	mov	r13, r16
 e4c:	01 2f       	mov	r16, r17
 e4e:	1e 2d       	mov	r17, r14
 e50:	ef 2c       	mov	r14, r15
 e52:	8d 2d       	mov	r24, r13
 e54:	90 2f       	mov	r25, r16
 e56:	0e 94 aa 01 	call	0x354	; 0x354 <_Z13update_inputsPc>
 e5a:	0e 94 87 02 	call	0x50e	; 0x50e <_Z14usb_configuredv>
 e5e:	88 23       	and	r24, r24
 e60:	21 f0       	breq	.+8      	; 0xe6a <main+0x78>
 e62:	8d 2d       	mov	r24, r13
 e64:	90 2f       	mov	r25, r16
 e66:	0e 94 8a 02 	call	0x514	; 0x514 <_Z18usb_gamepad_updatePc>
 e6a:	81 2f       	mov	r24, r17
 e6c:	9e 2d       	mov	r25, r14
 e6e:	6d 2d       	mov	r22, r13
 e70:	70 2f       	mov	r23, r16
 e72:	47 e0       	ldi	r20, 0x07	; 7
 e74:	0e 94 d3 06 	call	0xda6	; 0xda6 <_ZN4XCVR2txEPcc>
 e78:	8f e7       	ldi	r24, 0x7F	; 127
 e7a:	98 e3       	ldi	r25, 0x38	; 56
 e7c:	a1 e0       	ldi	r26, 0x01	; 1
 e7e:	81 50       	subi	r24, 0x01	; 1
 e80:	90 40       	sbci	r25, 0x00	; 0
 e82:	a0 40       	sbci	r26, 0x00	; 0
 e84:	e1 f7       	brne	.-8      	; 0xe7e <main+0x8c>
 e86:	00 c0       	rjmp	.+0      	; 0xe88 <main+0x96>
 e88:	00 00       	nop
 e8a:	e3 cf       	rjmp	.-58     	; 0xe52 <main+0x60>

00000e8c <_exit>:
 e8c:	f8 94       	cli

00000e8e <__stop_program>:
 e8e:	ff cf       	rjmp	.-2      	; 0xe8e <__stop_program>
